; Function Attrs: mustprogress nounwind uwtable
define void @_ZN4cvc56parser10SymManagerD2Ev(ptr noundef nonnull align 8 dereferenceable(56) %this) unnamed_addr #5 align 2 personality ptr @__gxx_personality_v0 {
entry:
  %d_logic = getelementptr inbounds i8, ptr %this, i64 24
  tail call void @_ZNSt7__cxx1112basic_stringIcSt11char_traitsIcESaIcEED1Ev(ptr noundef nonnull align 8 dereferenceable(32) %d_logic) #21
  %d_implementation = getelementptr inbounds i8, ptr %this, i64 8
  %0 = load ptr, ptr %d_implementation, align 8
  %cmp.not.i = icmp eq ptr %0, null
  br i1 %cmp.not.i, label %_ZNSt10unique_ptrIN4cvc56parser10SymManager14ImplementationESt14default_deleteIS3_EED2Ev.exit, label %_ZNKSt14default_deleteIN4cvc56parser10SymManager14ImplementationEEclEPS3_.exit.i

_ZNKSt14default_deleteIN4cvc56parser10SymManager14ImplementationEEclEPS3_.exit.i: ; preds = %entry
  tail call void @_ZN4cvc56parser10SymManager14ImplementationD2Ev(ptr noundef nonnull align 8 dereferenceable(584) %0) #21
  tail call void @_ZdlPv(ptr noundef nonnull %0) #26
  br label %_ZNSt10unique_ptrIN4cvc56parser10SymManager14ImplementationESt14default_deleteIS3_EED2Ev.exit

_ZNSt10unique_ptrIN4cvc56parser10SymManager14ImplementationESt14default_deleteIS3_EED2Ev.exit: ; preds = %entry, %_ZNKSt14default_deleteIN4cvc56parser10SymManager14ImplementationEEclEPS3_.exit.i
  store ptr null, ptr %d_implementation, align 8
  ret void
}